target datalayout = "e-m:e-p270:32:32-p271:32:32-p272:64:64-i64:64-i128:128-f80:128-n8:16:32:64-S128"
target triple = "x86_64-pc-linux-gnu"

%struct.ossl_param_st = type { ptr, i32, ptr, i64, i64 }

@.str.17 = private unnamed_addr constant [34 x i8] c"../openssl/test/params_api_test.c\00", align 1
@.str.18 = private unnamed_addr constant [29 x i8] c"test_param_type_null(&param)\00", align 1
@.str.19 = private unnamed_addr constant [2 x i8] c"1\00", align 1
@__const.test_param_real.param = private unnamed_addr constant { ptr, i32, [4 x i8], ptr, i64, i64 } { ptr @.str.62, i32 3, [4 x i8] zeroinitializer, ptr null, i64 8, i64 -1 }, align 8
@.str.63 = private unnamed_addr constant [39 x i8] c"OSSL_PARAM_set_double(&param, 3.14159)\00", align 1
@.str.64 = private unnamed_addr constant [2 x i8] c"p\00", align 1
@.str.65 = private unnamed_addr constant [8 x i8] c"3.14159\00", align 1

; Function Attrs: nounwind uwtable
define internal i32 @test_param_real() #0 {
  %1 = alloca i32, align 4
  %2 = alloca double, align 8
  %3 = alloca %struct.ossl_param_st, align 8
  %4 = alloca i32, align 4
  call void @llvm.lifetime.start.p0(i64 8, ptr %2) #5
  call void @llvm.lifetime.start.p0(i64 40, ptr %3) #5
  call void @llvm.memcpy.p0.p0.i64(ptr align 8 %3, ptr align 8 @__const.test_param_real.param, i64 40, i1 false)
  %5 = call i32 @test_param_type_null(ptr noundef %3)
  %6 = call i32 @test_int_eq(ptr noundef @.str.17, i32 noundef 573, ptr noundef @.str.18, ptr noundef @.str.19, i32 noundef %5, i32 noundef 1)
  %7 = icmp ne i32 %6, 0
  br i1 %7, label %9, label %8

8:                                                ; preds = %0
  store i32 0, ptr %1, align 4
  store i32 1, ptr %4, align 4
  br label %23

9:                                                ; preds = %0
  %10 = getelementptr inbounds nuw %struct.ossl_param_st, ptr %3, i32 0, i32 2
  store ptr %2, ptr %10, align 8, !tbaa !12
  %11 = call i32 @OSSL_PARAM_set_double(ptr noundef %3, double noundef 3.141590e+00)
  %12 = icmp ne i32 %11, 0
  %13 = zext i1 %12 to i32
  %14 = call i32 @test_true(ptr noundef @.str.17, i32 noundef 577, ptr noundef @.str.63, i32 noundef %13)
  %15 = icmp ne i32 %14, 0
  br i1 %15, label %16, label %20

16:                                               ; preds = %9
  %17 = load double, ptr %2, align 8, !tbaa !23
  %18 = call i32 @test_double_eq(ptr noundef @.str.17, i32 noundef 578, ptr noundef @.str.64, ptr noundef @.str.65, double noundef %17, double noundef 3.141590e+00)
  %19 = icmp ne i32 %18, 0
  br label %20

20:                                               ; preds = %16, %9
  %21 = phi i1 [ false, %9 ], [ %19, %16 ]
  %22 = zext i1 %21 to i32
  store i32 %22, ptr %1, align 4
  store i32 1, ptr %4, align 4
  br label %23

23:                                               ; preds = %20, %8
  call void @llvm.lifetime.end.p0(i64 40, ptr %3) #5
  call void @llvm.lifetime.end.p0(i64 8, ptr %2) #5
  %24 = load i32, ptr %1, align 4
  ret i32 %24
}