; Function Attrs: nounwind uwtable
define internal range(i32 0, 2) i32 @test_param_real() #0 {
  %1 = alloca double, align 8
  %2 = alloca %struct.ossl_param_st, align 8
  call void @llvm.lifetime.start.p0(i64 8, ptr nonnull %1) #5
  call void @llvm.lifetime.start.p0(i64 40, ptr nonnull %2) #5
  call void @llvm.memcpy.p0.p0.i64(ptr noundef nonnull align 8 dereferenceable(40) %2, ptr noundef nonnull align 8 dereferenceable(40) @__const.test_param_real.param, i64 40, i1 false)
  %3 = call fastcc i32 @test_param_type_null(ptr noundef %2)
  %4 = call i32 @test_int_eq(ptr noundef nonnull @.str.17, i32 noundef 573, ptr noundef nonnull @.str.18, ptr noundef nonnull @.str.19, i32 noundef %3, i32 noundef 1) #5
  %.not = icmp eq i32 %4, 0
  br i1 %.not, label %16, label %5

5:                                                ; preds = %0
  %6 = getelementptr inbounds nuw i8, ptr %2, i64 16
  store ptr %1, ptr %6, align 8, !tbaa !9
  %7 = call i32 @OSSL_PARAM_set_double(ptr noundef nonnull %2, double noundef 3.141590e+00) #5
  %8 = icmp ne i32 %7, 0
  %9 = zext i1 %8 to i32
  %10 = call i32 @test_true(ptr noundef nonnull @.str.17, i32 noundef 577, ptr noundef nonnull @.str.63, i32 noundef %9) #5
  %.not1 = icmp eq i32 %10, 0
  br i1 %.not1, label %16, label %11

11:                                               ; preds = %5
  %12 = load double, ptr %1, align 8, !tbaa !23
  %13 = call i32 @test_double_eq(ptr noundef nonnull @.str.17, i32 noundef 578, ptr noundef nonnull @.str.64, ptr noundef nonnull @.str.65, double noundef %12, double noundef 3.141590e+00) #5
  %14 = icmp ne i32 %13, 0
  %15 = zext i1 %14 to i32
  br label %16

16:                                               ; preds = %5, %11, %0
  %.0 = phi i32 [ 0, %0 ], [ 0, %5 ], [ %15, %11 ]
  call void @llvm.lifetime.end.p0(i64 40, ptr nonnull %2) #5
  call void @llvm.lifetime.end.p0(i64 8, ptr nonnull %1) #5
  ret i32 %.0
}